; Function Attrs: mustprogress uwtable
define internal fastcc void @_ZL20maybe_copy_error_msgPKcPPc(ptr noundef readonly %0, ptr noundef writeonly %1) unnamed_addr #3 {
  %3 = icmp ne ptr %1, null
  %4 = icmp ne ptr %0, null
  %or.cond = and i1 %4, %3
  br i1 %or.cond, label %5, label %11

5:                                                ; preds = %2
  %6 = tail call i64 @strlen(ptr noundef nonnull dereferenceable(1) %0) #12
  %7 = add i64 %6, 1
  %8 = tail call ptr @gpr_malloc(i64 noundef %7)
  store ptr %8, ptr %1, align 8, !tbaa !12
  %9 = tail call i64 @strlen(ptr noundef nonnull dereferenceable(1) %0) #12
  %10 = add i64 %9, 1
  tail call void @llvm.memcpy.p0.p0.i64(ptr align 1 %8, ptr nonnull align 1 %0, i64 %10, i1 false)
  br label %11

11:                                               ; preds = %5, %2
  ret void
}